target datalayout = "e-m:e-p270:32:32-p271:32:32-p272:64:64-i64:64-i128:128-f80:128-n8:16:32:64-S128"
target triple = "x86_64-pc-linux-gnu"

%struct._PyASTOptimizeState = type { i32, i32, i32, i32 }
%struct.asdl_stmt_seq = type { i64, ptr, [1 x ptr] }
%struct._stmt = type { i32, %union.anon.4, i32, i32, i32, i32 }
%union.anon.4 = type { %struct.anon.5 }
%struct.anon.5 = type { ptr, ptr, ptr, ptr, ptr, ptr, ptr }
%struct.anon.29 = type { ptr }
%struct.asdl_expr_seq = type { i64, ptr, [1 x ptr] }

; Function Attrs: nounwind uwtable
define internal i32 @stmt_seq_remove_item(ptr noundef %0, i64 noundef %1) #0 {
  %3 = alloca i32, align 4
  %4 = alloca ptr, align 8
  %5 = alloca i64, align 8
  %6 = alloca i64, align 8
  %7 = alloca ptr, align 8
  store ptr %0, ptr %4, align 8, !tbaa !32
  store i64 %1, ptr %5, align 8, !tbaa !36
  %8 = load i64, ptr %5, align 8, !tbaa !36
  %9 = load ptr, ptr %4, align 8, !tbaa !32
  %10 = icmp eq ptr %9, null
  br i1 %10, label %11, label %12

11:                                               ; preds = %2
  br label %16

12:                                               ; preds = %2
  %13 = load ptr, ptr %4, align 8, !tbaa !32
  %14 = getelementptr inbounds nuw %struct.asdl_stmt_seq, ptr %13, i32 0, i32 0
  %15 = load i64, ptr %14, align 8, !tbaa !37
  br label %16

16:                                               ; preds = %12, %11
  %17 = phi i64 [ 0, %11 ], [ %15, %12 ]
  %18 = icmp sge i64 %8, %17
  br i1 %18, label %19, label %20

19:                                               ; preds = %16
  store i32 0, ptr %3, align 4
  br label %56

20:                                               ; preds = %16
  call void @llvm.lifetime.start.p0(i64 8, ptr %6) #8
  %21 = load i64, ptr %5, align 8, !tbaa !36
  store i64 %21, ptr %6, align 8, !tbaa !36
  br label %22

22:                                               ; preds = %48, %20
  %23 = load i64, ptr %6, align 8, !tbaa !36
  %24 = load ptr, ptr %4, align 8, !tbaa !32
  %25 = icmp eq ptr %24, null
  br i1 %25, label %26, label %27

26:                                               ; preds = %22
  br label %31

27:                                               ; preds = %22
  %28 = load ptr, ptr %4, align 8, !tbaa !32
  %29 = getelementptr inbounds nuw %struct.asdl_stmt_seq, ptr %28, i32 0, i32 0
  %30 = load i64, ptr %29, align 8, !tbaa !37
  br label %31

31:                                               ; preds = %27, %26
  %32 = phi i64 [ 0, %26 ], [ %30, %27 ]
  %33 = sub i64 %32, 1
  %34 = icmp slt i64 %23, %33
  br i1 %34, label %36, label %35

35:                                               ; preds = %31
  call void @llvm.lifetime.end.p0(i64 8, ptr %6) #8
  br label %51

36:                                               ; preds = %31
  call void @llvm.lifetime.start.p0(i64 8, ptr %7) #8
  %37 = load ptr, ptr %4, align 8, !tbaa !32
  %38 = getelementptr inbounds nuw %struct.asdl_stmt_seq, ptr %37, i32 0, i32 2
  %39 = load i64, ptr %6, align 8, !tbaa !36
  %40 = add i64 %39, 1
  %41 = getelementptr [1 x ptr], ptr %38, i64 0, i64 %40
  %42 = load ptr, ptr %41, align 8, !tbaa !39
  store ptr %42, ptr %7, align 8, !tbaa !39
  %43 = load ptr, ptr %7, align 8, !tbaa !39
  %44 = load ptr, ptr %4, align 8, !tbaa !32
  %45 = getelementptr inbounds nuw %struct.asdl_stmt_seq, ptr %44, i32 0, i32 2
  %46 = load i64, ptr %6, align 8, !tbaa !36
  %47 = getelementptr [1 x ptr], ptr %45, i64 0, i64 %46
  store ptr %43, ptr %47, align 8, !tbaa !39
  call void @llvm.lifetime.end.p0(i64 8, ptr %7) #8
  br label %48

48:                                               ; preds = %36
  %49 = load i64, ptr %6, align 8, !tbaa !36
  %50 = add i64 %49, 1
  store i64 %50, ptr %6, align 8, !tbaa !36
  br label %22, !llvm.loop !112

51:                                               ; preds = %35
  %52 = load ptr, ptr %4, align 8, !tbaa !32
  %53 = getelementptr inbounds nuw %struct.asdl_stmt_seq, ptr %52, i32 0, i32 0
  %54 = load i64, ptr %53, align 8, !tbaa !37
  %55 = add i64 %54, -1
  store i64 %55, ptr %53, align 8, !tbaa !37
  store i32 1, ptr %3, align 4
  br label %56

56:                                               ; preds = %51, %19
  %57 = load i32, ptr %3, align 4
  ret i32 %57
}

; Function Attrs: nounwind uwtable
define internal i32 @astfold_body(ptr noundef %0, ptr noundef %1, ptr noundef %2) #0 {
  %4 = alloca i32, align 4
  %5 = alloca ptr, align 8
  %6 = alloca ptr, align 8
  %7 = alloca ptr, align 8
  %8 = alloca i32, align 4
  %9 = alloca i32, align 4
  %10 = alloca i64, align 8
  %11 = alloca ptr, align 8
  %12 = alloca ptr, align 8
  %13 = alloca ptr, align 8
  %14 = alloca ptr, align 8
  %15 = alloca ptr, align 8
  store ptr %0, ptr %5, align 8, !tbaa !32
  store ptr %1, ptr %6, align 8, !tbaa !9
  store ptr %2, ptr %7, align 8, !tbaa !32
  call void @llvm.lifetime.start.p0(i64 4, ptr %8) #8
  %16 = load ptr, ptr %5, align 8, !tbaa !32
  %17 = call ptr @_PyAST_GetDocString(ptr noundef %16)
  %18 = icmp ne ptr %17, null
  %19 = zext i1 %18 to i32
  store i32 %19, ptr %8, align 4, !tbaa !11
  %20 = load i32, ptr %8, align 4, !tbaa !11
  %21 = icmp ne i32 %20, 0
  br i1 %21, label %22, label %33

22:                                               ; preds = %3
  %23 = load ptr, ptr %7, align 8, !tbaa !32
  %24 = getelementptr inbounds nuw %struct._PyASTOptimizeState, ptr %23, i32 0, i32 0
  %25 = load i32, ptr %24, align 4, !tbaa !13
  %26 = icmp sge i32 %25, 2
  br i1 %26, label %27, label %33

27:                                               ; preds = %22
  %28 = load ptr, ptr %5, align 8, !tbaa !32
  %29 = call i32 @stmt_seq_remove_item(ptr noundef %28, i64 noundef 0)
  %30 = icmp ne i32 %29, 0
  br i1 %30, label %32, label %31

31:                                               ; preds = %27
  store i32 0, ptr %4, align 4
  store i32 1, ptr %9, align 4
  br label %125

32:                                               ; preds = %27
  store i32 0, ptr %8, align 4, !tbaa !11
  br label %33

33:                                               ; preds = %32, %22, %3
  call void @llvm.lifetime.start.p0(i64 8, ptr %10) #8
  call void @llvm.lifetime.start.p0(i64 8, ptr %11) #8
  %34 = load ptr, ptr %5, align 8, !tbaa !32
  store ptr %34, ptr %11, align 8, !tbaa !32
  store i64 0, ptr %10, align 8, !tbaa !36
  br label %35

35:                                               ; preds = %66, %33
  %36 = load i64, ptr %10, align 8, !tbaa !36
  %37 = load ptr, ptr %11, align 8, !tbaa !32
  %38 = icmp eq ptr %37, null
  br i1 %38, label %39, label %40

39:                                               ; preds = %35
  br label %44

40:                                               ; preds = %35
  %41 = load ptr, ptr %11, align 8, !tbaa !32
  %42 = getelementptr inbounds nuw %struct.asdl_stmt_seq, ptr %41, i32 0, i32 0
  %43 = load i64, ptr %42, align 8, !tbaa !37
  br label %44

44:                                               ; preds = %40, %39
  %45 = phi i64 [ 0, %39 ], [ %43, %40 ]
  %46 = icmp slt i64 %36, %45
  br i1 %46, label %47, label %69

47:                                               ; preds = %44
  call void @llvm.lifetime.start.p0(i64 8, ptr %12) #8
  %48 = load ptr, ptr %11, align 8, !tbaa !32
  %49 = getelementptr inbounds nuw %struct.asdl_stmt_seq, ptr %48, i32 0, i32 2
  %50 = load i64, ptr %10, align 8, !tbaa !36
  %51 = getelementptr [1 x ptr], ptr %49, i64 0, i64 %50
  %52 = load ptr, ptr %51, align 8, !tbaa !39
  store ptr %52, ptr %12, align 8, !tbaa !39
  %53 = load ptr, ptr %12, align 8, !tbaa !39
  %54 = icmp ne ptr %53, null
  br i1 %54, label %55, label %62

55:                                               ; preds = %47
  %56 = load ptr, ptr %12, align 8, !tbaa !39
  %57 = load ptr, ptr %6, align 8, !tbaa !9
  %58 = load ptr, ptr %7, align 8, !tbaa !32
  %59 = call i32 @astfold_stmt(ptr noundef %56, ptr noundef %57, ptr noundef %58)
  %60 = icmp ne i32 %59, 0
  br i1 %60, label %62, label %61

61:                                               ; preds = %55
  store i32 0, ptr %4, align 4
  store i32 1, ptr %9, align 4
  br label %63

62:                                               ; preds = %55, %47
  store i32 0, ptr %9, align 4
  br label %63

63:                                               ; preds = %62, %61
  call void @llvm.lifetime.end.p0(i64 8, ptr %12) #8
  %64 = load i32, ptr %9, align 4
  switch i32 %64, label %70 [
    i32 0, label %65
  ]

65:                                               ; preds = %63
  br label %66

66:                                               ; preds = %65
  %67 = load i64, ptr %10, align 8, !tbaa !36
  %68 = add i64 %67, 1
  store i64 %68, ptr %10, align 8, !tbaa !36
  br label %35, !llvm.loop !43

69:                                               ; preds = %44
  store i32 0, ptr %9, align 4
  br label %70

70:                                               ; preds = %69, %63
  call void @llvm.lifetime.end.p0(i64 8, ptr %11) #8
  call void @llvm.lifetime.end.p0(i64 8, ptr %10) #8
  %71 = load i32, ptr %9, align 4
  switch i32 %71, label %125 [
    i32 0, label %72
  ]

72:                                               ; preds = %70
  %73 = load i32, ptr %8, align 4, !tbaa !11
  %74 = icmp ne i32 %73, 0
  br i1 %74, label %124, label %75

75:                                               ; preds = %72
  %76 = load ptr, ptr %5, align 8, !tbaa !32
  %77 = call ptr @_PyAST_GetDocString(ptr noundef %76)
  %78 = icmp ne ptr %77, null
  br i1 %78, label %79, label %124

79:                                               ; preds = %75
  call void @llvm.lifetime.start.p0(i64 8, ptr %13) #8
  %80 = load ptr, ptr %5, align 8, !tbaa !32
  %81 = getelementptr inbounds nuw %struct.asdl_stmt_seq, ptr %80, i32 0, i32 2
  %82 = getelementptr [1 x ptr], ptr %81, i64 0, i64 0
  %83 = load ptr, ptr %82, align 8, !tbaa !39
  store ptr %83, ptr %13, align 8, !tbaa !39
  call void @llvm.lifetime.start.p0(i64 8, ptr %14) #8
  %84 = load ptr, ptr %6, align 8, !tbaa !9
  %85 = call ptr @_Py_asdl_expr_seq_new(i64 noundef 1, ptr noundef %84)
  store ptr %85, ptr %14, align 8, !tbaa !32
  %86 = load ptr, ptr %14, align 8, !tbaa !32
  %87 = icmp ne ptr %86, null
  br i1 %87, label %89, label %88

88:                                               ; preds = %79
  store i32 0, ptr %4, align 4
  store i32 1, ptr %9, align 4
  br label %121

89:                                               ; preds = %79
  %90 = load ptr, ptr %13, align 8, !tbaa !39
  %91 = getelementptr inbounds nuw %struct._stmt, ptr %90, i32 0, i32 1
  %92 = getelementptr inbounds nuw %struct.anon.29, ptr %91, i32 0, i32 0
  %93 = load ptr, ptr %92, align 8, !tbaa !35
  %94 = load ptr, ptr %14, align 8, !tbaa !32
  %95 = getelementptr inbounds nuw %struct.asdl_expr_seq, ptr %94, i32 0, i32 2
  %96 = getelementptr [1 x ptr], ptr %95, i64 0, i64 0
  store ptr %93, ptr %96, align 8, !tbaa !44
  call void @llvm.lifetime.start.p0(i64 8, ptr %15) #8
  %97 = load ptr, ptr %14, align 8, !tbaa !32
  %98 = load ptr, ptr %13, align 8, !tbaa !39
  %99 = getelementptr inbounds nuw %struct._stmt, ptr %98, i32 0, i32 2
  %100 = load i32, ptr %99, align 8, !tbaa !46
  %101 = load ptr, ptr %13, align 8, !tbaa !39
  %102 = getelementptr inbounds nuw %struct._stmt, ptr %101, i32 0, i32 3
  %103 = load i32, ptr %102, align 4, !tbaa !48
  %104 = load ptr, ptr %13, align 8, !tbaa !39
  %105 = getelementptr inbounds nuw %struct._stmt, ptr %104, i32 0, i32 4
  %106 = load i32, ptr %105, align 8, !tbaa !49
  %107 = load ptr, ptr %13, align 8, !tbaa !39
  %108 = getelementptr inbounds nuw %struct._stmt, ptr %107, i32 0, i32 5
  %109 = load i32, ptr %108, align 4, !tbaa !50
  %110 = load ptr, ptr %6, align 8, !tbaa !9
  %111 = call ptr @_PyAST_JoinedStr(ptr noundef %97, i32 noundef %100, i32 noundef %103, i32 noundef %106, i32 noundef %109, ptr noundef %110)
  store ptr %111, ptr %15, align 8, !tbaa !44
  %112 = load ptr, ptr %15, align 8, !tbaa !44
  %113 = icmp ne ptr %112, null
  br i1 %113, label %115, label %114

114:                                              ; preds = %89
  store i32 0, ptr %4, align 4
  store i32 1, ptr %9, align 4
  br label %120

115:                                              ; preds = %89
  %116 = load ptr, ptr %15, align 8, !tbaa !44
  %117 = load ptr, ptr %13, align 8, !tbaa !39
  %118 = getelementptr inbounds nuw %struct._stmt, ptr %117, i32 0, i32 1
  %119 = getelementptr inbounds nuw %struct.anon.29, ptr %118, i32 0, i32 0
  store ptr %116, ptr %119, align 8, !tbaa !35
  store i32 0, ptr %9, align 4
  br label %120

120:                                              ; preds = %115, %114
  call void @llvm.lifetime.end.p0(i64 8, ptr %15) #8
  br label %121

121:                                              ; preds = %120, %88
  call void @llvm.lifetime.end.p0(i64 8, ptr %14) #8
  call void @llvm.lifetime.end.p0(i64 8, ptr %13) #8
  %122 = load i32, ptr %9, align 4
  switch i32 %122, label %125 [
    i32 0, label %123
  ]

123:                                              ; preds = %121
  br label %124

124:                                              ; preds = %123, %75, %72
  store i32 1, ptr %4, align 4
  store i32 1, ptr %9, align 4
  br label %125

125:                                              ; preds = %124, %121, %70, %31
  call void @llvm.lifetime.end.p0(i64 4, ptr %8) #8
  %126 = load i32, ptr %4, align 4
  ret i32 %126
}