; Function Attrs: nounwind uwtable
define internal fastcc noundef range(i32 0, 2) i32 @astfold_body(ptr noundef %0, ptr noundef %1, ptr noundef nonnull %2) unnamed_addr #0 {
  %4 = tail call ptr @_PyAST_GetDocString(ptr noundef %0) #8
  %.not = icmp ne ptr %4, null
  br i1 %.not, label %5, label %18

5:                                                ; preds = %3
  %6 = load i32, ptr %2, align 4, !tbaa !4
  %7 = icmp sgt i32 %6, 1
  br i1 %7, label %8, label %18

8:                                                ; preds = %5
  %9 = icmp eq ptr %0, null
  br i1 %9, label %.critedge55, label %10

10:                                               ; preds = %8
  %11 = load i64, ptr %0, align 8, !tbaa !29
  %12 = icmp slt i64 %11, 1
  br i1 %12, label %.critedge55, label %.preheader.i

.preheader.i:                                     ; preds = %10
  %.not.i = icmp eq i64 %11, 1
  br i1 %.not.i, label %.thread, label %.lr.ph.i

.lr.ph.i:                                         ; preds = %.preheader.i
  %13 = getelementptr inbounds nuw i8, ptr %0, i64 16
  %scevgep.i = getelementptr i8, ptr %0, i64 24
  %14 = shl i64 %11, 3
  %15 = add i64 %14, -8
  tail call void @llvm.memmove.p0.p0.i64(ptr nonnull align 8 %13, ptr align 8 %scevgep.i, i64 %15, i1 false), !tbaa !31
  br label %.thread

.thread:                                          ; preds = %.lr.ph.i, %.preheader.i
  %16 = add nsw i64 %11, -1
  store i64 %16, ptr %0, align 8, !tbaa !29
  %17 = getelementptr inbounds nuw i8, ptr %0, i64 16
  br label %.split

18:                                               ; preds = %5, %3
  %19 = icmp eq ptr %0, null
  %20 = getelementptr inbounds nuw i8, ptr %0, i64 16
  br i1 %19, label %.critedge53, label %.splitthread-pre-split

.splitthread-pre-split:                           ; preds = %18
  %.pr = load i64, ptr %0, align 8, !tbaa !29
  br label %.split

.split:                                           ; preds = %.splitthread-pre-split, %.thread
  %21 = phi i64 [ %.pr, %.splitthread-pre-split ], [ %16, %.thread ]
  %22 = phi ptr [ %20, %.splitthread-pre-split ], [ %17, %.thread ]
  %.036.shrunk65 = phi i1 [ %.not, %.splitthread-pre-split ], [ false, %.thread ]
  %.not4860 = icmp sgt i64 %21, 0
  br i1 %.not4860, label %.lr.ph.preheader, label %.critedge53

.lr.ph.preheader:                                 ; preds = %.split
  %23 = getelementptr inbounds nuw i8, ptr %0, i64 16
  br label %.lr.ph

.lr.ph:                                           ; preds = %.lr.ph.preheader, %.critedge
  %24 = phi i64 [ %29, %.critedge ], [ %21, %.lr.ph.preheader ]
  %.04161 = phi i64 [ %30, %.critedge ], [ 0, %.lr.ph.preheader ]
  %25 = getelementptr [1 x ptr], ptr %23, i64 0, i64 %.04161
  %26 = load ptr, ptr %25, align 8, !tbaa !31
  %.not46 = icmp eq ptr %26, null
  br i1 %.not46, label %.critedge, label %27

27:                                               ; preds = %.lr.ph
  %28 = tail call fastcc i32 @astfold_stmt(ptr noundef %26, ptr noundef %1, ptr noundef %2)
  %.not47 = icmp eq i32 %28, 0
  br i1 %.not47, label %.critedge55, label %..critedge_crit_edge

..critedge_crit_edge:                             ; preds = %27
  %.pre = load i64, ptr %0, align 8, !tbaa !29
  br label %.critedge

.critedge:                                        ; preds = %..critedge_crit_edge, %.lr.ph
  %29 = phi i64 [ %.pre, %..critedge_crit_edge ], [ %24, %.lr.ph ]
  %30 = add nuw nsw i64 %.04161, 1
  %.not48 = icmp slt i64 %30, %29
  br i1 %.not48, label %.lr.ph, label %.critedge53, !llvm.loop !36

.critedge53:                                      ; preds = %.critedge, %.split, %18
  %31 = phi ptr [ %22, %.split ], [ %20, %18 ], [ %22, %.critedge ]
  %.036.shrunk66 = phi i1 [ %.036.shrunk65, %.split ], [ %.not, %18 ], [ %.036.shrunk65, %.critedge ]
  br i1 %.036.shrunk66, label %.critedge55, label %32

32:                                               ; preds = %.critedge53
  %33 = tail call ptr @_PyAST_GetDocString(ptr noundef %0) #8
  %.not49 = icmp eq ptr %33, null
  br i1 %.not49, label %.critedge55, label %34

34:                                               ; preds = %32
  %35 = load ptr, ptr %31, align 8, !tbaa !31
  %36 = tail call ptr @_Py_asdl_expr_seq_new(i64 noundef 1, ptr noundef %1) #8
  %.not50 = icmp eq ptr %36, null
  br i1 %.not50, label %.critedge55, label %37

37:                                               ; preds = %34
  %38 = getelementptr inbounds nuw i8, ptr %35, i64 8
  %39 = load ptr, ptr %38, align 8, !tbaa !28
  %40 = getelementptr inbounds nuw i8, ptr %36, i64 16
  store ptr %39, ptr %40, align 8, !tbaa !37
  %41 = getelementptr inbounds nuw i8, ptr %35, i64 64
  %42 = load i32, ptr %41, align 8, !tbaa !39
  %43 = getelementptr inbounds nuw i8, ptr %35, i64 68
  %44 = load i32, ptr %43, align 4, !tbaa !41
  %45 = getelementptr inbounds nuw i8, ptr %35, i64 72
  %46 = load i32, ptr %45, align 8, !tbaa !42
  %47 = getelementptr inbounds nuw i8, ptr %35, i64 76
  %48 = load i32, ptr %47, align 4, !tbaa !43
  %49 = tail call ptr @_PyAST_JoinedStr(ptr noundef nonnull %36, i32 noundef %42, i32 noundef %44, i32 noundef %46, i32 noundef %48, ptr noundef %1) #8
  %.not51.not = icmp eq ptr %49, null
  br i1 %.not51.not, label %.critedge55, label %50

50:                                               ; preds = %37
  store ptr %49, ptr %38, align 8, !tbaa !28
  br label %.critedge55

.critedge55:                                      ; preds = %27, %8, %10, %.critedge53, %32, %50, %37, %34
  %.0 = phi i32 [ 0, %34 ], [ 0, %37 ], [ 1, %50 ], [ 1, %32 ], [ 1, %.critedge53 ], [ 0, %10 ], [ 0, %8 ], [ 0, %27 ]
  ret i32 %.0
}